target datalayout = "e-m:e-p270:32:32-p271:32:32-p272:64:64-i64:64-i128:128-f80:128-n8:16:32:64-S128"
target triple = "x86_64-pc-linux-gnu"

%struct.AVRational = type { i32, i32 }
%struct.Jpeg2000DecoderContext = type { ptr, ptr, %struct.GetByteContext, i32, i32, i32, i32, i32, i32, [4 x i8], [4 x i8], [4 x i8], i8, ptr, i32, %struct.GetByteContext, [4 x i32], [4 x i32], i32, i32, i32, [256 x i32], i8, [4 x i32], i32, i32, i32, i32, i32, %struct.AVRational, [4 x %struct.Jpeg2000CodingStyle], [4 x %struct.Jpeg2000QuantStyle], %struct.Jpeg2000POC, [4 x i8], i32, i32, ptr, %struct.Jpeg2000DSPContext, i8, i8, i8, i8, i8, i8, i32 }
%struct.GetByteContext = type { ptr, ptr, ptr }
%struct.Jpeg2000CodingStyle = type { i32, i32, i8, i8, i8, i8, i8, i8, i8, i8, [34 x i8], [34 x i8], i8 }
%struct.Jpeg2000QuantStyle = type { [99 x i8], [99 x i16], i8, i8 }
%struct.Jpeg2000POC = type { [32 x %struct.Jpeg2000POCEntry], i32, i32 }
%struct.Jpeg2000POCEntry = type { i16, i16, i16, i8, i8, i8 }
%struct.Jpeg2000DSPContext = type { [3 x ptr] }

; Function Attrs: alwaysinline nounwind willreturn memory(none) uwtable
define internal zeroext i16 @av_bswap16(i16 noundef zeroext %0) #8 {
  %2 = alloca i16, align 2
  store i16 %0, ptr %2, align 2, !tbaa !90
  %3 = load i16, ptr %2, align 2, !tbaa !90
  %4 = zext i16 %3 to i32
  %5 = ashr i32 %4, 8
  %6 = load i16, ptr %2, align 2, !tbaa !90
  %7 = zext i16 %6 to i32
  %8 = shl i32 %7, 8
  %9 = or i32 %5, %8
  %10 = trunc i32 %9 to i16
  store i16 %10, ptr %2, align 2, !tbaa !90
  %11 = load i16, ptr %2, align 2, !tbaa !90
  ret i16 %11
}

; Function Attrs: alwaysinline nounwind uwtable
define internal i32 @bytestream_get_be16(ptr noundef %0) #4 {
  %2 = alloca ptr, align 8
  store ptr %0, ptr %2, align 8, !tbaa !122
  %3 = load ptr, ptr %2, align 8, !tbaa !122
  %4 = load ptr, ptr %3, align 8, !tbaa !70
  %5 = getelementptr inbounds i8, ptr %4, i64 2
  store ptr %5, ptr %3, align 8, !tbaa !70
  %6 = load ptr, ptr %2, align 8, !tbaa !122
  %7 = load ptr, ptr %6, align 8, !tbaa !70
  %8 = getelementptr inbounds i8, ptr %7, i64 -2
  %9 = load i16, ptr %8, align 1, !tbaa !89
  %10 = call zeroext i16 @av_bswap16(i16 noundef zeroext %9) #14
  %11 = zext i16 %10 to i32
  ret i32 %11
}

; Function Attrs: alwaysinline nounwind uwtable
define internal i32 @bytestream_get_byte(ptr noundef %0) #4 {
  %2 = alloca ptr, align 8
  store ptr %0, ptr %2, align 8, !tbaa !122
  %3 = load ptr, ptr %2, align 8, !tbaa !122
  %4 = load ptr, ptr %3, align 8, !tbaa !70
  %5 = getelementptr inbounds i8, ptr %4, i64 1
  store ptr %5, ptr %3, align 8, !tbaa !70
  %6 = load ptr, ptr %2, align 8, !tbaa !122
  %7 = load ptr, ptr %6, align 8, !tbaa !70
  %8 = getelementptr inbounds i8, ptr %7, i64 -1
  %9 = getelementptr inbounds i8, ptr %8, i64 0
  %10 = load i8, ptr %9, align 1, !tbaa !89
  %11 = zext i8 %10 to i32
  ret i32 %11
}

; Function Attrs: alwaysinline nounwind uwtable
define internal i32 @bytestream2_get_be16u(ptr noundef %0) #4 {
  %2 = alloca ptr, align 8
  store ptr %0, ptr %2, align 8, !tbaa !71
  %3 = load ptr, ptr %2, align 8, !tbaa !71
  %4 = getelementptr inbounds nuw %struct.GetByteContext, ptr %3, i32 0, i32 0
  %5 = call i32 @bytestream_get_be16(ptr noundef %4)
  ret i32 %5
}

; Function Attrs: alwaysinline nounwind uwtable
define internal i32 @bytestream2_get_byteu(ptr noundef %0) #4 {
  %2 = alloca ptr, align 8
  store ptr %0, ptr %2, align 8, !tbaa !71
  %3 = load ptr, ptr %2, align 8, !tbaa !71
  %4 = getelementptr inbounds nuw %struct.GetByteContext, ptr %3, i32 0, i32 0
  %5 = call i32 @bytestream_get_byte(ptr noundef %4)
  ret i32 %5
}

; Function Attrs: alwaysinline nounwind uwtable
define internal i32 @bytestream2_get_bytes_left(ptr noundef %0) #4 {
  %2 = alloca ptr, align 8
  store ptr %0, ptr %2, align 8, !tbaa !71
  %3 = load ptr, ptr %2, align 8, !tbaa !71
  %4 = getelementptr inbounds nuw %struct.GetByteContext, ptr %3, i32 0, i32 1
  %5 = load ptr, ptr %4, align 8, !tbaa !75
  %6 = load ptr, ptr %2, align 8, !tbaa !71
  %7 = getelementptr inbounds nuw %struct.GetByteContext, ptr %6, i32 0, i32 0
  %8 = load ptr, ptr %7, align 8, !tbaa !73
  %9 = ptrtoint ptr %5 to i64
  %10 = ptrtoint ptr %8 to i64
  %11 = sub i64 %9, %10
  %12 = trunc i64 %11 to i32
  ret i32 %12
}

; Function Attrs: nounwind uwtable
define internal i32 @get_qcx(ptr noundef %0, i32 noundef %1, ptr noundef %2) #1 {
  %4 = alloca i32, align 4
  %5 = alloca ptr, align 8
  %6 = alloca i32, align 4
  %7 = alloca ptr, align 8
  %8 = alloca i32, align 4
  %9 = alloca i32, align 4
  %10 = alloca i32, align 4
  %11 = alloca i32, align 4
  store ptr %0, ptr %5, align 8, !tbaa !29
  store i32 %1, ptr %6, align 4, !tbaa !48
  store ptr %2, ptr %7, align 8, !tbaa !85
  call void @llvm.lifetime.start.p0(i64 4, ptr %8) #12
  call void @llvm.lifetime.start.p0(i64 4, ptr %9) #12
  %12 = load ptr, ptr %5, align 8, !tbaa !29
  %13 = getelementptr inbounds nuw %struct.Jpeg2000DecoderContext, ptr %12, i32 0, i32 2
  %14 = call i32 @bytestream2_get_bytes_left(ptr noundef %13)
  %15 = icmp slt i32 %14, 1
  br i1 %15, label %16, label %17

16:                                               ; preds = %3
  store i32 -1094995529, ptr %4, align 4
  store i32 1, ptr %10, align 4
  br label %188

17:                                               ; preds = %3
  %18 = load ptr, ptr %5, align 8, !tbaa !29
  %19 = getelementptr inbounds nuw %struct.Jpeg2000DecoderContext, ptr %18, i32 0, i32 2
  %20 = call i32 @bytestream2_get_byteu(ptr noundef %19)
  store i32 %20, ptr %9, align 4, !tbaa !48
  %21 = load i32, ptr %9, align 4, !tbaa !48
  %22 = ashr i32 %21, 5
  %23 = trunc i32 %22 to i8
  %24 = load ptr, ptr %7, align 8, !tbaa !85
  %25 = getelementptr inbounds nuw %struct.Jpeg2000QuantStyle, ptr %24, i32 0, i32 3
  store i8 %23, ptr %25, align 1, !tbaa !187
  %26 = load i32, ptr %9, align 4, !tbaa !48
  %27 = and i32 %26, 31
  %28 = trunc i32 %27 to i8
  %29 = load ptr, ptr %7, align 8, !tbaa !85
  %30 = getelementptr inbounds nuw %struct.Jpeg2000QuantStyle, ptr %29, i32 0, i32 2
  store i8 %28, ptr %30, align 2, !tbaa !189
  %31 = load ptr, ptr %7, align 8, !tbaa !85
  %32 = getelementptr inbounds nuw %struct.Jpeg2000QuantStyle, ptr %31, i32 0, i32 2
  %33 = load i8, ptr %32, align 2, !tbaa !189
  %34 = zext i8 %33 to i32
  %35 = icmp eq i32 %34, 0
  br i1 %35, label %36, label %68

36:                                               ; preds = %17
  %37 = load i32, ptr %6, align 4, !tbaa !48
  %38 = sub nsw i32 %37, 3
  store i32 %38, ptr %6, align 4, !tbaa !48
  %39 = load ptr, ptr %5, align 8, !tbaa !29
  %40 = getelementptr inbounds nuw %struct.Jpeg2000DecoderContext, ptr %39, i32 0, i32 2
  %41 = call i32 @bytestream2_get_bytes_left(ptr noundef %40)
  %42 = load i32, ptr %6, align 4, !tbaa !48
  %43 = icmp slt i32 %41, %42
  br i1 %43, label %47, label %44

44:                                               ; preds = %36
  %45 = load i32, ptr %6, align 4, !tbaa !48
  %46 = icmp sgt i32 %45, 99
  br i1 %46, label %47, label %48

47:                                               ; preds = %44, %36
  store i32 -1094995529, ptr %4, align 4
  store i32 1, ptr %10, align 4
  br label %188

48:                                               ; preds = %44
  store i32 0, ptr %8, align 4, !tbaa !48
  br label %49

49:                                               ; preds = %64, %48
  %50 = load i32, ptr %8, align 4, !tbaa !48
  %51 = load i32, ptr %6, align 4, !tbaa !48
  %52 = icmp slt i32 %50, %51
  br i1 %52, label %53, label %67

53:                                               ; preds = %49
  %54 = load ptr, ptr %5, align 8, !tbaa !29
  %55 = getelementptr inbounds nuw %struct.Jpeg2000DecoderContext, ptr %54, i32 0, i32 2
  %56 = call i32 @bytestream2_get_byteu(ptr noundef %55)
  %57 = lshr i32 %56, 3
  %58 = trunc i32 %57 to i8
  %59 = load ptr, ptr %7, align 8, !tbaa !85
  %60 = getelementptr inbounds nuw %struct.Jpeg2000QuantStyle, ptr %59, i32 0, i32 0
  %61 = load i32, ptr %8, align 4, !tbaa !48
  %62 = sext i32 %61 to i64
  %63 = getelementptr inbounds [99 x i8], ptr %60, i64 0, i64 %62
  store i8 %58, ptr %63, align 1, !tbaa !89
  br label %64

64:                                               ; preds = %53
  %65 = load i32, ptr %8, align 4, !tbaa !48
  %66 = add nsw i32 %65, 1
  store i32 %66, ptr %8, align 4, !tbaa !48
  br label %49, !llvm.loop !190

67:                                               ; preds = %49
  br label %187

68:                                               ; preds = %17
  %69 = load ptr, ptr %7, align 8, !tbaa !85
  %70 = getelementptr inbounds nuw %struct.Jpeg2000QuantStyle, ptr %69, i32 0, i32 2
  %71 = load i8, ptr %70, align 2, !tbaa !189
  %72 = zext i8 %71 to i32
  %73 = icmp eq i32 %72, 1
  br i1 %73, label %74, label %143

74:                                               ; preds = %68
  %75 = load ptr, ptr %5, align 8, !tbaa !29
  %76 = getelementptr inbounds nuw %struct.Jpeg2000DecoderContext, ptr %75, i32 0, i32 2
  %77 = call i32 @bytestream2_get_bytes_left(ptr noundef %76)
  %78 = icmp slt i32 %77, 2
  br i1 %78, label %79, label %80

79:                                               ; preds = %74
  store i32 -1094995529, ptr %4, align 4
  store i32 1, ptr %10, align 4
  br label %188

80:                                               ; preds = %74
  %81 = load ptr, ptr %5, align 8, !tbaa !29
  %82 = getelementptr inbounds nuw %struct.Jpeg2000DecoderContext, ptr %81, i32 0, i32 2
  %83 = call i32 @bytestream2_get_be16u(ptr noundef %82)
  store i32 %83, ptr %9, align 4, !tbaa !48
  %84 = load i32, ptr %9, align 4, !tbaa !48
  %85 = ashr i32 %84, 11
  %86 = trunc i32 %85 to i8
  %87 = load ptr, ptr %7, align 8, !tbaa !85
  %88 = getelementptr inbounds nuw %struct.Jpeg2000QuantStyle, ptr %87, i32 0, i32 0
  %89 = getelementptr inbounds [99 x i8], ptr %88, i64 0, i64 0
  store i8 %86, ptr %89, align 2, !tbaa !89
  %90 = load i32, ptr %9, align 4, !tbaa !48
  %91 = and i32 %90, 2047
  %92 = trunc i32 %91 to i16
  %93 = load ptr, ptr %7, align 8, !tbaa !85
  %94 = getelementptr inbounds nuw %struct.Jpeg2000QuantStyle, ptr %93, i32 0, i32 1
  %95 = getelementptr inbounds [99 x i16], ptr %94, i64 0, i64 0
  store i16 %92, ptr %95, align 2, !tbaa !90
  store i32 1, ptr %8, align 4, !tbaa !48
  br label %96

96:                                               ; preds = %139, %80
  %97 = load i32, ptr %8, align 4, !tbaa !48
  %98 = icmp slt i32 %97, 99
  br i1 %98, label %99, label %142

99:                                               ; preds = %96
  call void @llvm.lifetime.start.p0(i64 4, ptr %11) #12
  %100 = load ptr, ptr %7, align 8, !tbaa !85
  %101 = getelementptr inbounds nuw %struct.Jpeg2000QuantStyle, ptr %100, i32 0, i32 0
  %102 = getelementptr inbounds [99 x i8], ptr %101, i64 0, i64 0
  %103 = load i8, ptr %102, align 2, !tbaa !89
  %104 = zext i8 %103 to i32
  %105 = load i32, ptr %8, align 4, !tbaa !48
  %106 = sub nsw i32 %105, 1
  %107 = sdiv i32 %106, 3
  %108 = sub nsw i32 %104, %107
  %109 = icmp sgt i32 0, %108
  br i1 %109, label %110, label %111

110:                                              ; preds = %99
  br label %121

111:                                              ; preds = %99
  %112 = load ptr, ptr %7, align 8, !tbaa !85
  %113 = getelementptr inbounds nuw %struct.Jpeg2000QuantStyle, ptr %112, i32 0, i32 0
  %114 = getelementptr inbounds [99 x i8], ptr %113, i64 0, i64 0
  %115 = load i8, ptr %114, align 2, !tbaa !89
  %116 = zext i8 %115 to i32
  %117 = load i32, ptr %8, align 4, !tbaa !48
  %118 = sub nsw i32 %117, 1
  %119 = sdiv i32 %118, 3
  %120 = sub nsw i32 %116, %119
  br label %121

121:                                              ; preds = %111, %110
  %122 = phi i32 [ 0, %110 ], [ %120, %111 ]
  store i32 %122, ptr %11, align 4, !tbaa !48
  %123 = load i32, ptr %11, align 4, !tbaa !48
  %124 = trunc i32 %123 to i8
  %125 = load ptr, ptr %7, align 8, !tbaa !85
  %126 = getelementptr inbounds nuw %struct.Jpeg2000QuantStyle, ptr %125, i32 0, i32 0
  %127 = load i32, ptr %8, align 4, !tbaa !48
  %128 = sext i32 %127 to i64
  %129 = getelementptr inbounds [99 x i8], ptr %126, i64 0, i64 %128
  store i8 %124, ptr %129, align 1, !tbaa !89
  %130 = load ptr, ptr %7, align 8, !tbaa !85
  %131 = getelementptr inbounds nuw %struct.Jpeg2000QuantStyle, ptr %130, i32 0, i32 1
  %132 = getelementptr inbounds [99 x i16], ptr %131, i64 0, i64 0
  %133 = load i16, ptr %132, align 2, !tbaa !90
  %134 = load ptr, ptr %7, align 8, !tbaa !85
  %135 = getelementptr inbounds nuw %struct.Jpeg2000QuantStyle, ptr %134, i32 0, i32 1
  %136 = load i32, ptr %8, align 4, !tbaa !48
  %137 = sext i32 %136 to i64
  %138 = getelementptr inbounds [99 x i16], ptr %135, i64 0, i64 %137
  store i16 %133, ptr %138, align 2, !tbaa !90
  call void @llvm.lifetime.end.p0(i64 4, ptr %11) #12
  br label %139

139:                                              ; preds = %121
  %140 = load i32, ptr %8, align 4, !tbaa !48
  %141 = add nsw i32 %140, 1
  store i32 %141, ptr %8, align 4, !tbaa !48
  br label %96, !llvm.loop !191

142:                                              ; preds = %96
  br label %186

143:                                              ; preds = %68
  %144 = load i32, ptr %6, align 4, !tbaa !48
  %145 = sub nsw i32 %144, 3
  %146 = ashr i32 %145, 1
  store i32 %146, ptr %6, align 4, !tbaa !48
  %147 = load ptr, ptr %5, align 8, !tbaa !29
  %148 = getelementptr inbounds nuw %struct.Jpeg2000DecoderContext, ptr %147, i32 0, i32 2
  %149 = call i32 @bytestream2_get_bytes_left(ptr noundef %148)
  %150 = load i32, ptr %6, align 4, !tbaa !48
  %151 = mul nsw i32 2, %150
  %152 = icmp slt i32 %149, %151
  br i1 %152, label %156, label %153

153:                                              ; preds = %143
  %154 = load i32, ptr %6, align 4, !tbaa !48
  %155 = icmp sgt i32 %154, 99
  br i1 %155, label %156, label %157

156:                                              ; preds = %153, %143
  store i32 -1094995529, ptr %4, align 4
  store i32 1, ptr %10, align 4
  br label %188

157:                                              ; preds = %153
  store i32 0, ptr %8, align 4, !tbaa !48
  br label %158

158:                                              ; preds = %182, %157
  %159 = load i32, ptr %8, align 4, !tbaa !48
  %160 = load i32, ptr %6, align 4, !tbaa !48
  %161 = icmp slt i32 %159, %160
  br i1 %161, label %162, label %185

162:                                              ; preds = %158
  %163 = load ptr, ptr %5, align 8, !tbaa !29
  %164 = getelementptr inbounds nuw %struct.Jpeg2000DecoderContext, ptr %163, i32 0, i32 2
  %165 = call i32 @bytestream2_get_be16u(ptr noundef %164)
  store i32 %165, ptr %9, align 4, !tbaa !48
  %166 = load i32, ptr %9, align 4, !tbaa !48
  %167 = ashr i32 %166, 11
  %168 = trunc i32 %167 to i8
  %169 = load ptr, ptr %7, align 8, !tbaa !85
  %170 = getelementptr inbounds nuw %struct.Jpeg2000QuantStyle, ptr %169, i32 0, i32 0
  %171 = load i32, ptr %8, align 4, !tbaa !48
  %172 = sext i32 %171 to i64
  %173 = getelementptr inbounds [99 x i8], ptr %170, i64 0, i64 %172
  store i8 %168, ptr %173, align 1, !tbaa !89
  %174 = load i32, ptr %9, align 4, !tbaa !48
  %175 = and i32 %174, 2047
  %176 = trunc i32 %175 to i16
  %177 = load ptr, ptr %7, align 8, !tbaa !85
  %178 = getelementptr inbounds nuw %struct.Jpeg2000QuantStyle, ptr %177, i32 0, i32 1
  %179 = load i32, ptr %8, align 4, !tbaa !48
  %180 = sext i32 %179 to i64
  %181 = getelementptr inbounds [99 x i16], ptr %178, i64 0, i64 %180
  store i16 %176, ptr %181, align 2, !tbaa !90
  br label %182

182:                                              ; preds = %162
  %183 = load i32, ptr %8, align 4, !tbaa !48
  %184 = add nsw i32 %183, 1
  store i32 %184, ptr %8, align 4, !tbaa !48
  br label %158, !llvm.loop !192

185:                                              ; preds = %158
  br label %186

186:                                              ; preds = %185, %142
  br label %187

187:                                              ; preds = %186, %67
  store i32 0, ptr %4, align 4
  store i32 1, ptr %10, align 4
  br label %188

188:                                              ; preds = %187, %156, %79, %47, %16
  call void @llvm.lifetime.end.p0(i64 4, ptr %9) #12
  call void @llvm.lifetime.end.p0(i64 4, ptr %8) #12
  %189 = load i32, ptr %4, align 4
  ret i32 %189
}