; Function Attrs: nofree norecurse nosync nounwind memory(read, argmem: readwrite, inaccessiblemem: none) uwtable
define internal fastcc range(i32 -1094995529, 1) i32 @get_qcx(ptr noundef captures(none) %0, i32 noundef range(i32 1, 65536) %1, ptr noundef captures(none) %2) unnamed_addr #8 {
  %4 = getelementptr inbounds nuw i8, ptr %0, i64 16
  %5 = getelementptr inbounds nuw i8, ptr %0, i64 24
  %6 = load ptr, ptr %5, align 8, !tbaa !41
  %7 = load ptr, ptr %4, align 8, !tbaa !39
  %8 = ptrtoint ptr %6 to i64
  %9 = ptrtoint ptr %7 to i64
  %10 = sub i64 %8, %9
  %11 = trunc i64 %10 to i32
  %12 = icmp slt i32 %11, 1
  br i1 %12, label %.loopexit, label %13

13:                                               ; preds = %3
  %14 = getelementptr inbounds nuw i8, ptr %7, i64 1
  store ptr %14, ptr %4, align 8, !tbaa !43
  %15 = load i8, ptr %7, align 1, !tbaa !44
  %16 = lshr i8 %15, 5
  %17 = getelementptr inbounds nuw i8, ptr %2, i64 299
  store i8 %16, ptr %17, align 1, !tbaa !149
  %18 = and i8 %15, 31
  %19 = getelementptr inbounds nuw i8, ptr %2, i64 298
  store i8 %18, ptr %19, align 2, !tbaa !236
  switch i8 %18, label %53 [
    i8 0, label %20
    i8 1, label %33
  ]

20:                                               ; preds = %13
  %21 = add nsw i32 %1, -3
  %22 = ptrtoint ptr %14 to i64
  %23 = sub i64 %8, %22
  %24 = trunc i64 %23 to i32
  %25 = icmp sgt i32 %21, %24
  %26 = icmp samesign ugt i32 %1, 102
  %or.cond = select i1 %25, i1 true, i1 %26
  br i1 %or.cond, label %.loopexit, label %.preheader60

.preheader60:                                     ; preds = %20
  %27 = icmp samesign ugt i32 %1, 3
  br i1 %27, label %.lr.ph.preheader, label %.loopexit

.lr.ph.preheader:                                 ; preds = %.preheader60
  %wide.trip.count = zext nneg i32 %21 to i64
  br label %.lr.ph

.lr.ph:                                           ; preds = %.lr.ph.preheader, %.lr.ph
  %indvars.iv70 = phi i64 [ 0, %.lr.ph.preheader ], [ %indvars.iv.next71, %.lr.ph ]
  %28 = load ptr, ptr %4, align 8, !tbaa !43
  %29 = getelementptr inbounds nuw i8, ptr %28, i64 1
  store ptr %29, ptr %4, align 8, !tbaa !43
  %30 = load i8, ptr %28, align 1, !tbaa !44
  %31 = lshr i8 %30, 3
  %32 = getelementptr inbounds nuw [99 x i8], ptr %2, i64 0, i64 %indvars.iv70
  store i8 %31, ptr %32, align 1, !tbaa !44
  %indvars.iv.next71 = add nuw nsw i64 %indvars.iv70, 1
  %exitcond73.not = icmp eq i64 %indvars.iv.next71, %wide.trip.count
  br i1 %exitcond73.not, label %.loopexit, label %.lr.ph, !llvm.loop !237

33:                                               ; preds = %13
  %34 = ptrtoint ptr %14 to i64
  %35 = sub i64 %8, %34
  %36 = trunc i64 %35 to i32
  %37 = icmp slt i32 %36, 2
  br i1 %37, label %.loopexit, label %38

38:                                               ; preds = %33
  %39 = getelementptr inbounds nuw i8, ptr %7, i64 3
  store ptr %39, ptr %4, align 8, !tbaa !43
  %40 = load i16, ptr %14, align 1, !tbaa !44
  %41 = tail call i16 @llvm.bswap.i16(i16 %40)
  %42 = lshr i16 %41, 11
  %43 = trunc nuw nsw i16 %42 to i8
  store i8 %43, ptr %2, align 2, !tbaa !44
  %44 = and i16 %41, 2047
  %45 = getelementptr inbounds nuw i8, ptr %2, i64 100
  store i16 %44, ptr %45, align 2, !tbaa !71
  %46 = zext nneg i16 %42 to i32
  br label %47

47:                                               ; preds = %38, %47
  %indvars.iv = phi i64 [ 1, %38 ], [ %indvars.iv.next, %47 ]
  %48 = trunc i64 %indvars.iv to i8
  %.neg.lhs.trunc = add nsw i8 %48, -1
  %.neg58 = sdiv i8 %.neg.lhs.trunc, -3
  %.neg.sext = sext i8 %.neg58 to i32
  %49 = add nsw i32 %.neg.sext, %46
  %spec.select59 = tail call i32 @llvm.smax.i32(i32 %49, i32 0)
  %spec.select = trunc nuw nsw i32 %spec.select59 to i8
  %50 = getelementptr inbounds nuw [99 x i8], ptr %2, i64 0, i64 %indvars.iv
  store i8 %spec.select, ptr %50, align 1, !tbaa !44
  %51 = load i16, ptr %45, align 2, !tbaa !71
  %52 = getelementptr inbounds nuw [99 x i16], ptr %45, i64 0, i64 %indvars.iv
  store i16 %51, ptr %52, align 2, !tbaa !71
  %indvars.iv.next = add nuw nsw i64 %indvars.iv, 1
  %exitcond.not = icmp eq i64 %indvars.iv.next, 99
  br i1 %exitcond.not, label %.loopexit, label %47, !llvm.loop !238

53:                                               ; preds = %13
  %54 = add nsw i32 %1, -3
  %55 = ashr i32 %54, 1
  %56 = ptrtoint ptr %14 to i64
  %57 = sub i64 %8, %56
  %58 = trunc i64 %57 to i32
  %59 = and i32 %54, -2
  %60 = icmp sgt i32 %59, %58
  %61 = icmp sgt i32 %55, 99
  %or.cond3 = or i1 %61, %60
  br i1 %or.cond3, label %.loopexit, label %.preheader

.preheader:                                       ; preds = %53
  %62 = icmp sgt i32 %55, 0
  br i1 %62, label %.lr.ph66, label %.loopexit

.lr.ph66:                                         ; preds = %.preheader
  %63 = getelementptr inbounds nuw i8, ptr %2, i64 100
  %wide.trip.count77 = zext nneg i32 %55 to i64
  br label %64

64:                                               ; preds = %.lr.ph66, %64
  %indvars.iv74 = phi i64 [ 0, %.lr.ph66 ], [ %indvars.iv.next75, %64 ]
  %65 = load ptr, ptr %4, align 8, !tbaa !43
  %66 = getelementptr inbounds nuw i8, ptr %65, i64 2
  store ptr %66, ptr %4, align 8, !tbaa !43
  %67 = load i16, ptr %65, align 1, !tbaa !44
  %68 = tail call i16 @llvm.bswap.i16(i16 %67)
  %69 = lshr i16 %68, 11
  %70 = trunc nuw nsw i16 %69 to i8
  %71 = getelementptr inbounds nuw [99 x i8], ptr %2, i64 0, i64 %indvars.iv74
  store i8 %70, ptr %71, align 1, !tbaa !44
  %72 = and i16 %68, 2047
  %73 = getelementptr inbounds nuw [99 x i16], ptr %63, i64 0, i64 %indvars.iv74
  store i16 %72, ptr %73, align 2, !tbaa !71
  %indvars.iv.next75 = add nuw nsw i64 %indvars.iv74, 1
  %exitcond78.not = icmp eq i64 %indvars.iv.next75, %wide.trip.count77
  br i1 %exitcond78.not, label %.loopexit, label %64, !llvm.loop !239

.loopexit:                                        ; preds = %47, %.lr.ph, %64, %.preheader60, %.preheader, %53, %33, %20, %3
  %.0 = phi i32 [ -1094995529, %3 ], [ -1094995529, %20 ], [ -1094995529, %33 ], [ -1094995529, %53 ], [ 0, %.preheader ], [ 0, %.preheader60 ], [ 0, %64 ], [ 0, %.lr.ph ], [ 0, %47 ]
  ret i32 %.0
}